; Function Attrs: nounwind uwtable
define ptr @l_Lean_findModuleOf_x3f___rarg___lambda__2(ptr noundef %0, ptr noundef %1, ptr noundef %2, ptr noundef %3, ptr noundef %4) local_unnamed_addr #0 {
  %6 = tail call ptr @l_Lean_Environment_getModuleIdxFor_x3f(ptr noundef %4, ptr noundef %0) #4
  %7 = ptrtoint ptr %6 to i64
  %8 = and i64 %7, 1
  %.not.i33 = icmp eq i64 %8, 0
  br i1 %.not.i33, label %12, label %9

9:                                                ; preds = %5
  %10 = lshr i64 %7, 1
  %11 = trunc i64 %10 to i32
  br label %lean_obj_tag.exit

12:                                               ; preds = %5
  %13 = getelementptr i8, ptr %6, i64 4
  %.val.i = load i32, ptr %13, align 4
  %14 = lshr i32 %.val.i, 24
  br label %lean_obj_tag.exit

lean_obj_tag.exit:                                ; preds = %9, %12
  %.0.i = phi i32 [ %11, %9 ], [ %14, %12 ]
  %15 = icmp eq i32 %.0.i, 0
  br i1 %15, label %16, label %55

16:                                               ; preds = %lean_obj_tag.exit
  %17 = ptrtoint ptr %3 to i64
  %18 = and i64 %17, 1
  %.not40 = icmp eq i64 %18, 0
  br i1 %.not40, label %19, label %lean_dec.exit26

19:                                               ; preds = %16
  %20 = load i32, ptr %3, align 4, !tbaa !4
  %21 = icmp sgt i32 %20, 1
  br i1 %21, label %22, label %24, !prof !9

22:                                               ; preds = %19
  %23 = add nsw i32 %20, -1
  store i32 %23, ptr %3, align 4, !tbaa !4
  br label %lean_dec.exit26

24:                                               ; preds = %19
  %.not.i = icmp eq i32 %20, 0
  br i1 %.not.i, label %lean_dec.exit26, label %25

25:                                               ; preds = %24
  tail call void @lean_dec_ref_cold(ptr noundef nonnull %3) #4
  br label %lean_dec.exit26

lean_dec.exit26:                                  ; preds = %25, %24, %22, %16
  %26 = ptrtoint ptr %2 to i64
  %27 = and i64 %26, 1
  %.not41 = icmp eq i64 %27, 0
  br i1 %.not41, label %28, label %lean_dec.exit25

28:                                               ; preds = %lean_dec.exit26
  %29 = load i32, ptr %2, align 4, !tbaa !4
  %30 = icmp sgt i32 %29, 1
  br i1 %30, label %31, label %33, !prof !9

31:                                               ; preds = %28
  %32 = add nsw i32 %29, -1
  store i32 %32, ptr %2, align 4, !tbaa !4
  br label %lean_dec.exit25

33:                                               ; preds = %28
  %.not.i27 = icmp eq i32 %29, 0
  br i1 %.not.i27, label %lean_dec.exit25, label %34

34:                                               ; preds = %33
  tail call void @lean_dec_ref_cold(ptr noundef nonnull %2) #4
  br label %lean_dec.exit25

lean_dec.exit25:                                  ; preds = %34, %33, %31, %lean_dec.exit26
  %35 = getelementptr inbounds nuw i8, ptr %1, i64 16
  %36 = load ptr, ptr %35, align 8, !tbaa !10
  %37 = ptrtoint ptr %36 to i64
  %38 = and i64 %37, 1
  %.not42 = icmp eq i64 %38, 0
  br i1 %.not42, label %39, label %lean_inc.exit23

39:                                               ; preds = %lean_dec.exit25
  %.val.i34 = load i32, ptr %36, align 4, !tbaa !4
  %40 = icmp sgt i32 %.val.i34, 0
  br i1 %40, label %41, label %43, !prof !9

41:                                               ; preds = %39
  %42 = add nuw i32 %.val.i34, 1
  store i32 %42, ptr %36, align 4, !tbaa !4
  br label %lean_inc.exit23

43:                                               ; preds = %39
  %.not.i35 = icmp eq i32 %.val.i34, 0
  br i1 %.not.i35, label %lean_inc.exit23, label %44

44:                                               ; preds = %43
  tail call void @lean_inc_ref_cold(ptr noundef nonnull %36) #4
  br label %lean_inc.exit23

lean_inc.exit23:                                  ; preds = %44, %43, %41, %lean_dec.exit25
  %45 = ptrtoint ptr %1 to i64
  %46 = and i64 %45, 1
  %.not43 = icmp eq i64 %46, 0
  br i1 %.not43, label %47, label %lean_dec.exit24

47:                                               ; preds = %lean_inc.exit23
  %48 = load i32, ptr %1, align 4, !tbaa !4
  %49 = icmp sgt i32 %48, 1
  br i1 %49, label %50, label %52, !prof !9

50:                                               ; preds = %47
  %51 = add nsw i32 %48, -1
  store i32 %51, ptr %1, align 4, !tbaa !4
  br label %lean_dec.exit24

52:                                               ; preds = %47
  %.not.i29 = icmp eq i32 %48, 0
  br i1 %.not.i29, label %lean_dec.exit24, label %53

53:                                               ; preds = %52
  tail call void @lean_dec_ref_cold(ptr noundef nonnull %1) #4
  br label %lean_dec.exit24

lean_dec.exit24:                                  ; preds = %53, %52, %50, %lean_inc.exit23
  %54 = tail call ptr @lean_apply_2(ptr noundef %36, ptr noundef nonnull inttoptr (i64 1 to ptr), ptr noundef nonnull inttoptr (i64 1 to ptr)) #4
  br label %83

55:                                               ; preds = %lean_obj_tag.exit
  %56 = getelementptr inbounds nuw i8, ptr %6, i64 8
  %57 = load ptr, ptr %56, align 8, !tbaa !10
  %58 = ptrtoint ptr %57 to i64
  %59 = and i64 %58, 1
  %.not = icmp eq i64 %59, 0
  br i1 %.not, label %60, label %lean_inc.exit

60:                                               ; preds = %55
  %.val.i36 = load i32, ptr %57, align 4, !tbaa !4
  %61 = icmp sgt i32 %.val.i36, 0
  br i1 %61, label %62, label %64, !prof !9

62:                                               ; preds = %60
  %63 = add nuw i32 %.val.i36, 1
  store i32 %63, ptr %57, align 4, !tbaa !4
  br label %lean_inc.exit

64:                                               ; preds = %60
  %.not.i37 = icmp eq i32 %.val.i36, 0
  br i1 %.not.i37, label %lean_inc.exit, label %65

65:                                               ; preds = %64
  tail call void @lean_inc_ref_cold(ptr noundef nonnull %57) #4
  br label %lean_inc.exit

lean_inc.exit:                                    ; preds = %65, %64, %62, %55
  br i1 %.not.i33, label %66, label %lean_dec.exit

66:                                               ; preds = %lean_inc.exit
  %67 = load i32, ptr %6, align 4, !tbaa !4
  %68 = icmp sgt i32 %67, 1
  br i1 %68, label %69, label %71, !prof !9

69:                                               ; preds = %66
  %70 = add nsw i32 %67, -1
  store i32 %70, ptr %6, align 4, !tbaa !4
  br label %lean_dec.exit

71:                                               ; preds = %66
  %.not.i31 = icmp eq i32 %67, 0
  br i1 %.not.i31, label %lean_dec.exit, label %72

72:                                               ; preds = %71
  tail call void @lean_dec_ref_cold(ptr noundef nonnull %6) #4
  br label %lean_dec.exit

lean_dec.exit:                                    ; preds = %72, %71, %69, %lean_inc.exit
  tail call void @lean_inc_heartbeat() #4
  %73 = tail call noalias ptr @mi_malloc_small(i64 noundef 40) #4
  %74 = icmp eq ptr %73, null
  br i1 %74, label %75, label %lean_alloc_closure.exit

75:                                               ; preds = %lean_dec.exit
  tail call void @lean_internal_panic_out_of_memory() #5
  unreachable

lean_alloc_closure.exit:                          ; preds = %lean_dec.exit
  %76 = getelementptr inbounds nuw i8, ptr %73, i64 4
  store i32 1, ptr %73, align 4, !tbaa !4
  store i32 -184549336, ptr %76, align 4
  %77 = getelementptr inbounds nuw i8, ptr %73, i64 8
  store ptr @l_Lean_findModuleOf_x3f___rarg___lambda__1___boxed, ptr %77, align 8, !tbaa !10
  %78 = getelementptr inbounds nuw i8, ptr %73, i64 16
  store i16 3, ptr %78, align 8, !tbaa !12
  %79 = getelementptr inbounds nuw i8, ptr %73, i64 18
  store i16 2, ptr %79, align 2, !tbaa !12
  %80 = getelementptr inbounds nuw i8, ptr %73, i64 24
  store ptr %1, ptr %80, align 8, !tbaa !10
  %81 = getelementptr inbounds nuw i8, ptr %73, i64 32
  store ptr %57, ptr %81, align 8, !tbaa !10
  %82 = tail call ptr @lean_apply_4(ptr noundef %2, ptr noundef nonnull inttoptr (i64 1 to ptr), ptr noundef nonnull inttoptr (i64 1 to ptr), ptr noundef %3, ptr noundef nonnull %73) #4
  br label %83

83:                                               ; preds = %lean_alloc_closure.exit, %lean_dec.exit24
  %.0 = phi ptr [ %54, %lean_dec.exit24 ], [ %82, %lean_alloc_closure.exit ]
  ret ptr %.0
}